target datalayout = "e-m:e-p270:32:32-p271:32:32-p272:64:64-i64:64-i128:128-f80:128-n8:16:32:64-S128"
target triple = "x86_64-pc-linux-gnu"

%struct.mi_memid_s = type { %union.anon, i8, i8, i8, i32 }
%union.anon = type { %struct.mi_memid_os_info }
%struct.mi_memid_os_info = type { ptr, i64 }
%union.pthread_mutex_t = type { %struct.__pthread_mutex_s }
%struct.__pthread_mutex_s = type { i32, i32, i32, i32, i32, i16, i16, %struct.__pthread_internal_list }
%struct.__pthread_internal_list = type { ptr, ptr }
%struct.mi_subproc_s = type { i64, i64, %union.pthread_mutex_t, %union.pthread_mutex_t, ptr, ptr, %struct.mi_memid_s }
%struct.mi_arena_field_cursor_s = type { i64, i64, i64, i64, ptr, i8, i8 }
%struct.mi_heap_s = type { ptr, ptr, i64, i32, i64, [2 x i64], %struct.mi_random_cxt_s, i64, i64, i64, ptr, i8, i8, [129 x ptr], [75 x %struct.mi_page_queue_s] }
%struct.mi_random_cxt_s = type { [16 x i32], [16 x i32], i32, i8 }
%struct.mi_page_queue_s = type { ptr, ptr, i64 }

@mi_arena_count = internal global i64 0, align 64

; Function Attrs: nounwind uwtable
define hidden i64 @mi_arena_id_index(i32 noundef %0) #0 {
  %2 = alloca i32, align 4
  store i32 %0, ptr %2, align 4, !tbaa !52
  %3 = load i32, ptr %2, align 4, !tbaa !52
  %4 = icmp sle i32 %3, 0
  br i1 %4, label %5, label %6

5:                                                ; preds = %1
  br label %9

6:                                                ; preds = %1
  %7 = load i32, ptr %2, align 4, !tbaa !52
  %8 = sub nsw i32 %7, 1
  br label %9

9:                                                ; preds = %6, %5
  %10 = phi i32 [ 132, %5 ], [ %8, %6 ]
  %11 = sext i32 %10 to i64
  ret i64 %11
}

; Function Attrs: nounwind uwtable
define hidden i32 @_mi_arena_id_none() #0 {
  ret i32 0
}

; Function Attrs: nounwind uwtable
define hidden i64 @mi_arena_get_count() #0 {
  %1 = alloca i64, align 8
  %2 = load atomic i64, ptr @mi_arena_count monotonic, align 64
  store i64 %2, ptr %1, align 8
  %3 = load i64, ptr %1, align 8, !tbaa !15
  ret i64 %3
}

; Function Attrs: nounwind uwtable
define hidden void @_mi_arena_field_cursor_init(ptr noundef %0, ptr noundef %1, i1 noundef zeroext %2, ptr noundef %3) #0 {
  %5 = alloca ptr, align 8
  %6 = alloca ptr, align 8
  %7 = alloca i8, align 1
  %8 = alloca ptr, align 8
  %9 = alloca i64, align 8
  %10 = alloca i64, align 8
  %11 = alloca i64, align 8
  %12 = alloca i64, align 8
  %13 = alloca i64, align 8
  store ptr %0, ptr %5, align 8, !tbaa !36
  store ptr %1, ptr %6, align 8, !tbaa !25
  %14 = zext i1 %2 to i8
  store i8 %14, ptr %7, align 1, !tbaa !21
  store ptr %3, ptr %8, align 8, !tbaa !38
  %15 = load ptr, ptr %8, align 8, !tbaa !38
  %16 = getelementptr inbounds nuw %struct.mi_arena_field_cursor_s, ptr %15, i32 0, i32 3
  store i64 0, ptr %16, align 8, !tbaa !40
  %17 = load ptr, ptr %6, align 8, !tbaa !25
  %18 = load ptr, ptr %8, align 8, !tbaa !38
  %19 = getelementptr inbounds nuw %struct.mi_arena_field_cursor_s, ptr %18, i32 0, i32 4
  store ptr %17, ptr %19, align 8, !tbaa !42
  %20 = load i8, ptr %7, align 1, !tbaa !21, !range !22, !noundef !23
  %21 = trunc i8 %20 to i1
  %22 = load ptr, ptr %8, align 8, !tbaa !38
  %23 = getelementptr inbounds nuw %struct.mi_arena_field_cursor_s, ptr %22, i32 0, i32 5
  %24 = zext i1 %21 to i8
  store i8 %24, ptr %23, align 8, !tbaa !43
  %25 = load ptr, ptr %8, align 8, !tbaa !38
  %26 = getelementptr inbounds nuw %struct.mi_arena_field_cursor_s, ptr %25, i32 0, i32 6
  store i8 0, ptr %26, align 1, !tbaa !44
  call void @llvm.lifetime.start.p0(i64 8, ptr %9) #13
  %27 = load ptr, ptr %6, align 8, !tbaa !25
  %28 = getelementptr inbounds nuw %struct.mi_subproc_s, ptr %27, i32 0, i32 0
  %29 = load atomic i64, ptr %28 monotonic, align 8
  store i64 %29, ptr %10, align 8
  %30 = load i64, ptr %10, align 8, !tbaa !15
  store i64 %30, ptr %9, align 8, !tbaa !15
  call void @llvm.lifetime.start.p0(i64 8, ptr %11) #13
  %31 = load ptr, ptr %6, align 8, !tbaa !25
  %32 = getelementptr inbounds nuw %struct.mi_subproc_s, ptr %31, i32 0, i32 1
  %33 = load atomic i64, ptr %32 monotonic, align 8
  store i64 %33, ptr %12, align 8
  %34 = load i64, ptr %12, align 8, !tbaa !15
  store i64 %34, ptr %11, align 8, !tbaa !15
  call void @llvm.lifetime.start.p0(i64 8, ptr %13) #13
  %35 = call i64 @mi_arena_get_count() #12
  store i64 %35, ptr %13, align 8, !tbaa !15
  %36 = load ptr, ptr %5, align 8, !tbaa !36
  %37 = icmp ne ptr %36, null
  br i1 %37, label %38, label %59

38:                                               ; preds = %4
  %39 = load ptr, ptr %5, align 8, !tbaa !36
  %40 = getelementptr inbounds nuw %struct.mi_heap_s, ptr %39, i32 0, i32 3
  %41 = load i32, ptr %40, align 8, !tbaa !45
  %42 = call i32 @_mi_arena_id_none() #12
  %43 = icmp ne i32 %41, %42
  br i1 %43, label %44, label %59

44:                                               ; preds = %38
  %45 = load ptr, ptr %5, align 8, !tbaa !36
  %46 = getelementptr inbounds nuw %struct.mi_heap_s, ptr %45, i32 0, i32 3
  %47 = load i32, ptr %46, align 8, !tbaa !45
  %48 = call i64 @mi_arena_id_index(i32 noundef %47) #12
  %49 = load ptr, ptr %8, align 8, !tbaa !38
  %50 = getelementptr inbounds nuw %struct.mi_arena_field_cursor_s, ptr %49, i32 0, i32 1
  store i64 %48, ptr %50, align 8, !tbaa !49
  %51 = load ptr, ptr %8, align 8, !tbaa !38
  %52 = getelementptr inbounds nuw %struct.mi_arena_field_cursor_s, ptr %51, i32 0, i32 1
  %53 = load i64, ptr %52, align 8, !tbaa !49
  %54 = add i64 %53, 1
  %55 = load ptr, ptr %8, align 8, !tbaa !38
  %56 = getelementptr inbounds nuw %struct.mi_arena_field_cursor_s, ptr %55, i32 0, i32 2
  store i64 %54, ptr %56, align 8, !tbaa !50
  %57 = load ptr, ptr %8, align 8, !tbaa !38
  %58 = getelementptr inbounds nuw %struct.mi_arena_field_cursor_s, ptr %57, i32 0, i32 0
  store i64 0, ptr %58, align 8, !tbaa !51
  br label %100

59:                                               ; preds = %38, %4
  %60 = load i64, ptr %9, align 8, !tbaa !15
  %61 = load i64, ptr %11, align 8, !tbaa !15
  %62 = icmp ugt i64 %60, %61
  br i1 %62, label %63, label %91

63:                                               ; preds = %59
  %64 = load i64, ptr %13, align 8, !tbaa !15
  %65 = icmp ugt i64 %64, 0
  br i1 %65, label %66, label %91

66:                                               ; preds = %63
  %67 = load ptr, ptr %5, align 8, !tbaa !36
  %68 = icmp eq ptr %67, null
  br i1 %68, label %72, label %69

69:                                               ; preds = %66
  %70 = load i64, ptr %13, align 8, !tbaa !15
  %71 = icmp eq i64 %70, 0
  br i1 %71, label %72, label %73

72:                                               ; preds = %69, %66
  br label %79

73:                                               ; preds = %69
  %74 = load ptr, ptr %5, align 8, !tbaa !36
  %75 = call i64 @_mi_heap_random_next(ptr noundef %74) #12
  %76 = load i64, ptr %13, align 8, !tbaa !15
  %77 = urem i64 %75, %76
  %78 = trunc i64 %77 to i32
  br label %79

79:                                               ; preds = %73, %72
  %80 = phi i32 [ 0, %72 ], [ %78, %73 ]
  %81 = sext i32 %80 to i64
  %82 = load ptr, ptr %8, align 8, !tbaa !38
  %83 = getelementptr inbounds nuw %struct.mi_arena_field_cursor_s, ptr %82, i32 0, i32 1
  store i64 %81, ptr %83, align 8, !tbaa !49
  %84 = load ptr, ptr %8, align 8, !tbaa !38
  %85 = getelementptr inbounds nuw %struct.mi_arena_field_cursor_s, ptr %84, i32 0, i32 1
  %86 = load i64, ptr %85, align 8, !tbaa !49
  %87 = load i64, ptr %13, align 8, !tbaa !15
  %88 = add i64 %86, %87
  %89 = load ptr, ptr %8, align 8, !tbaa !38
  %90 = getelementptr inbounds nuw %struct.mi_arena_field_cursor_s, ptr %89, i32 0, i32 2
  store i64 %88, ptr %90, align 8, !tbaa !50
  br label %96

91:                                               ; preds = %63, %59
  %92 = load ptr, ptr %8, align 8, !tbaa !38
  %93 = getelementptr inbounds nuw %struct.mi_arena_field_cursor_s, ptr %92, i32 0, i32 1
  store i64 0, ptr %93, align 8, !tbaa !49
  %94 = load ptr, ptr %8, align 8, !tbaa !38
  %95 = getelementptr inbounds nuw %struct.mi_arena_field_cursor_s, ptr %94, i32 0, i32 2
  store i64 0, ptr %95, align 8, !tbaa !50
  br label %96

96:                                               ; preds = %91, %79
  %97 = load i64, ptr %11, align 8, !tbaa !15
  %98 = load ptr, ptr %8, align 8, !tbaa !38
  %99 = getelementptr inbounds nuw %struct.mi_arena_field_cursor_s, ptr %98, i32 0, i32 0
  store i64 %97, ptr %99, align 8, !tbaa !51
  br label %100

100:                                              ; preds = %96, %44
  call void @llvm.lifetime.end.p0(i64 8, ptr %13) #13
  call void @llvm.lifetime.end.p0(i64 8, ptr %11) #13
  call void @llvm.lifetime.end.p0(i64 8, ptr %9) #13
  ret void
}