; Function Attrs: nounwind uwtable
define hidden void @_mi_arena_field_cursor_init(ptr noundef %0, ptr noundef %1, i1 noundef zeroext %2, ptr noundef writeonly captures(none) initializes((0, 42)) %3) local_unnamed_addr #0 {
  %5 = zext i1 %2 to i8
  %6 = getelementptr inbounds nuw i8, ptr %3, i64 24
  store i64 0, ptr %6, align 8, !tbaa !28
  %7 = getelementptr inbounds nuw i8, ptr %3, i64 32
  store ptr %1, ptr %7, align 8, !tbaa !30
  %8 = getelementptr inbounds nuw i8, ptr %3, i64 40
  store i8 %5, ptr %8, align 8, !tbaa !31
  %9 = getelementptr inbounds nuw i8, ptr %3, i64 41
  store i8 0, ptr %9, align 1, !tbaa !32
  %10 = load atomic i64, ptr %1 monotonic, align 8
  %11 = getelementptr inbounds nuw i8, ptr %1, i64 8
  %12 = load atomic i64, ptr %11 monotonic, align 8
  %13 = load atomic i64, ptr @mi_arena_count monotonic, align 64
  %.not = icmp eq ptr %0, null
  br i1 %.not, label %25, label %14

14:                                               ; preds = %4
  %15 = getelementptr inbounds nuw i8, ptr %0, i64 24
  %16 = load i32, ptr %15, align 8, !tbaa !33
  %.not35 = icmp eq i32 %16, 0
  br i1 %.not35, label %.thread, label %17

17:                                               ; preds = %14
  %18 = icmp slt i32 %16, 1
  %19 = add nsw i32 %16, -1
  %20 = select i1 %18, i32 132, i32 %19
  %21 = zext nneg i32 %20 to i64
  %22 = getelementptr inbounds nuw i8, ptr %3, i64 8
  store i64 %21, ptr %22, align 8, !tbaa !38
  %23 = add nuw nsw i64 %21, 1
  %24 = getelementptr inbounds nuw i8, ptr %3, i64 16
  store i64 %23, ptr %24, align 8, !tbaa !39
  br label %41

25:                                               ; preds = %4
  %26 = icmp ugt i64 %10, %12
  %27 = icmp ne i64 %13, 0
  %or.cond = select i1 %26, i1 %27, i1 false
  br i1 %or.cond, label %34, label %39

.thread:                                          ; preds = %14
  %28 = icmp ugt i64 %10, %12
  %29 = icmp ne i64 %13, 0
  %or.cond36 = select i1 %28, i1 %29, i1 false
  br i1 %or.cond36, label %30, label %39

30:                                               ; preds = %.thread
  %31 = tail call i64 @_mi_heap_random_next(ptr noundef nonnull %0) #20
  %32 = urem i64 %31, %13
  %sext = shl i64 %32, 32
  %33 = ashr exact i64 %sext, 32
  br label %34

34:                                               ; preds = %25, %30
  %35 = phi i64 [ %33, %30 ], [ 0, %25 ]
  %36 = getelementptr inbounds nuw i8, ptr %3, i64 8
  store i64 %35, ptr %36, align 8, !tbaa !38
  %37 = add i64 %35, %13
  %38 = getelementptr inbounds nuw i8, ptr %3, i64 16
  store i64 %37, ptr %38, align 8, !tbaa !39
  br label %41

39:                                               ; preds = %.thread, %25
  %40 = getelementptr inbounds nuw i8, ptr %3, i64 8
  tail call void @llvm.memset.p0.i64(ptr noundef nonnull align 8 dereferenceable(16) %40, i8 0, i64 16, i1 false)
  br label %41

41:                                               ; preds = %34, %39, %17
  %storemerge = phi i64 [ 0, %17 ], [ %12, %39 ], [ %12, %34 ]
  store i64 %storemerge, ptr %3, align 8, !tbaa !40
  ret void
}